; ModuleID = '37/1685.c'
source_filename = "37/1685.c"
target datalayout = "e-m:e-p270:32:32-p271:32:32-p272:64:64-i64:64-f80:128-n8:16:32:64-S128"
target triple = "x86_64-pc-linux-gnu"

@.str = private unnamed_addr constant [3 x i8] c"%d\00", align 1
@.str.1 = private unnamed_addr constant [3 x i8] c"%s\00", align 1
@.str.2 = private unnamed_addr constant [4 x i8] c"%c\0A\00", align 1
@.str.3 = private unnamed_addr constant [4 x i8] c"no\0A\00", align 1

; Function Attrs: noinline nounwind uwtable
define dso_local i32 @main() #0 {
  %1 = alloca i32, align 4
  %2 = alloca [100000 x i8], align 16
  %3 = alloca i32, align 4
  %4 = alloca i32, align 4
  %5 = alloca i32, align 4
  %6 = alloca i32, align 4
  %7 = alloca i32, align 4
  %8 = alloca i32, align 4
  %9 = alloca [100000 x i32], align 16
  store i32 0, i32* %1, align 4
  %10 = call i32 (i8*, ...) @__isoc99_scanf(i8* getelementptr inbounds ([3 x i8], [3 x i8]* @.str, i64 0, i64 0), i32* %3)
  store i32 0, i32* %4, align 4
  br label %11

11:                                               ; preds = %100, %0
  %12 = load i32, i32* %4, align 4
  %13 = load i32, i32* %3, align 4
  %14 = icmp slt i32 %12, %13
  br i1 %14, label %15, label %103

15:                                               ; preds = %11
  store i32 0, i32* %8, align 4
  br label %16

16:                                               ; preds = %23, %15
  %17 = load i32, i32* %8, align 4
  %18 = icmp slt i32 %17, 100000
  br i1 %18, label %19, label %26

19:                                               ; preds = %16
  %20 = load i32, i32* %8, align 4
  %21 = sext i32 %20 to i64
  %22 = getelementptr inbounds [100000 x i32], [100000 x i32]* %9, i64 0, i64 %21
  store i32 0, i32* %22, align 4
  br label %23

23:                                               ; preds = %19
  %24 = load i32, i32* %8, align 4
  %25 = add nsw i32 %24, 1
  store i32 %25, i32* %8, align 4
  br label %16

26:                                               ; preds = %16
  %27 = getelementptr inbounds [100000 x i8], [100000 x i8]* %2, i64 0, i64 0
  %28 = call i32 (i8*, ...) @__isoc99_scanf(i8* getelementptr inbounds ([3 x i8], [3 x i8]* @.str.1, i64 0, i64 0), i8* %27)
  %29 = getelementptr inbounds [100000 x i8], [100000 x i8]* %2, i64 0, i64 0
  %30 = call i64 @strlen(i8* %29) #3
  %31 = trunc i64 %30 to i32
  store i32 %31, i32* %6, align 4
  store i32 0, i32* %5, align 4
  br label %32

32:                                               ; preds = %89, %26
  %33 = load i32, i32* %5, align 4
  %34 = load i32, i32* %6, align 4
  %35 = sub nsw i32 %34, 1
  %36 = icmp slt i32 %33, %35
  br i1 %36, label %37, label %92

37:                                               ; preds = %32
  %38 = load i32, i32* %5, align 4
  %39 = add nsw i32 %38, 1
  store i32 %39, i32* %7, align 4
  br label %40

40:                                               ; preds = %68, %37
  %41 = load i32, i32* %7, align 4
  %42 = load i32, i32* %6, align 4
  %43 = icmp slt i32 %41, %42
  br i1 %43, label %44, label %71

44:                                               ; preds = %40
  %45 = load i32, i32* %7, align 4
  %46 = sext i32 %45 to i64
  %47 = getelementptr inbounds [100000 x i8], [100000 x i8]* %2, i64 0, i64 %46
  %48 = load i8, i8* %47, align 1
  %49 = sext i8 %48 to i32
  %50 = load i32, i32* %5, align 4
  %51 = sext i32 %50 to i64
  %52 = getelementptr inbounds [100000 x i8], [100000 x i8]* %2, i64 0, i64 %51
  %53 = load i8, i8* %52, align 1
  %54 = sext i8 %53 to i32
  %55 = icmp eq i32 %49, %54
  br i1 %55, label %56, label %67

56:                                               ; preds = %44
  %57 = load i32, i32* %7, align 4
  %58 = sext i32 %57 to i64
  %59 = getelementptr inbounds [100000 x i32], [100000 x i32]* %9, i64 0, i64 %58
  %60 = load i32, i32* %59, align 4
  %61 = add nsw i32 %60, 1
  store i32 %61, i32* %59, align 4
  %62 = load i32, i32* %5, align 4
  %63 = sext i32 %62 to i64
  %64 = getelementptr inbounds [100000 x i32], [100000 x i32]* %9, i64 0, i64 %63
  %65 = load i32, i32* %64, align 4
  %66 = add nsw i32 %65, 1
  store i32 %66, i32* %64, align 4
  br label %67

67:                                               ; preds = %56, %44
  br label %68

68:                                               ; preds = %67
  %69 = load i32, i32* %7, align 4
  %70 = add nsw i32 %69, 1
  store i32 %70, i32* %7, align 4
  br label %40

71:                                               ; preds = %40
  %72 = load i32, i32* %7, align 4
  %73 = load i32, i32* %6, align 4
  %74 = icmp eq i32 %72, %73
  br i1 %74, label %75, label %88

75:                                               ; preds = %71
  %76 = load i32, i32* %5, align 4
  %77 = sext i32 %76 to i64
  %78 = getelementptr inbounds [100000 x i32], [100000 x i32]* %9, i64 0, i64 %77
  %79 = load i32, i32* %78, align 4
  %80 = icmp eq i32 %79, 0
  br i1 %80, label %81, label %88

81:                                               ; preds = %75
  %82 = load i32, i32* %5, align 4
  %83 = sext i32 %82 to i64
  %84 = getelementptr inbounds [100000 x i8], [100000 x i8]* %2, i64 0, i64 %83
  %85 = load i8, i8* %84, align 1
  %86 = sext i8 %85 to i32
  %87 = call i32 (i8*, ...) @printf(i8* getelementptr inbounds ([4 x i8], [4 x i8]* @.str.2, i64 0, i64 0), i32 %86)
  br label %92

88:                                               ; preds = %75, %71
  br label %89

89:                                               ; preds = %88
  %90 = load i32, i32* %5, align 4
  %91 = add nsw i32 %90, 1
  store i32 %91, i32* %5, align 4
  br label %32

92:                                               ; preds = %81, %32
  %93 = load i32, i32* %5, align 4
  %94 = load i32, i32* %6, align 4
  %95 = sub nsw i32 %94, 1
  %96 = icmp eq i32 %93, %95
  br i1 %96, label %97, label %99

97:                                               ; preds = %92
  %98 = call i32 (i8*, ...) @printf(i8* getelementptr inbounds ([4 x i8], [4 x i8]* @.str.3, i64 0, i64 0))
  br label %99

99:                                               ; preds = %97, %92
  br label %100

100:                                              ; preds = %99
  %101 = load i32, i32* %4, align 4
  %102 = add nsw i32 %101, 1
  store i32 %102, i32* %4, align 4
  br label %11

103:                                              ; preds = %11
  %104 = load i32, i32* %1, align 4
  ret i32 %104
}

declare dso_local i32 @__isoc99_scanf(i8*, ...) #1

; Function Attrs: nounwind readonly
declare dso_local i64 @strlen(i8*) #2

declare dso_local i32 @printf(i8*, ...) #1


!llvm.module.flags = !{!0}
!llvm.ident = !{!1}

!0 = !{i32 1, !"wchar_size", i32 4}
!1 = !{!"clang version 10.0.0-4ubuntu1 "}
